((dp1
I0
I4535
sI1
I1657
sI2
I1032
sI3
I797
sI4
I551
sI5
I466
sI6
I338
sI7
I309
sI8
I237
sI9
I201
sI10
I157
sI11
I170
sI12
I125
sI13
I117
sI14
I122
sI15
I102
sI16
I94
sI17
I83
sI18
I75
sI19
I57
sI20
I56
sI21
I59
sI22
I47
sI23
I38
sI24
I40
sI25
I30
sI26
I31
sI27
I32
sI28
I22
sI29
I27
sI30
I23
sI31
I18
sI32
I19
sI33
I7
sI34
I20
sI35
I15
sI36
I17
sI37
I14
sI38
I4
sI39
I11
sI40
I10
sI41
I14
sI42
I14
sI43
I6
sI44
I5
sI45
I10
sI46
I8
sI47
I5
sI48
I11
sI49
I5
sI50
I4
sI51
I5
sI52
I7
sI53
I1
sI54
I5
sI55
I4
sI56
I2
sI57
I4
sI58
I2
sI59
I2
sI62
I2
sI63
I1
sI64
I2
sI65
I2
sI66
I1
sI67
I5
sI69
I2
sI70
I3
sI71
I2
sI72
I3
sI73
I4
sI76
I5
sI77
I2
sI78
I3
sI80
I1
sI81
I1
sI83
I3
sI84
I1
sI85
I1
sI87
I1
sI89
I1
sI93
I4
sI94
I2
sI95
I1
sI96
I1
sI97
I3
sI103
I1
sI111
I1
sI112
I1
sI113
I1
sI114
I1
sI116
I1
sI118
I1
sI119
I1
sI121
I1
sI138
I2
sI141
I1
sI161
I1
sI167
I1
sI168
I1
sI171
I1
sI173
I1
sI193
I1
sI194
I1
sI217
I1
sI254
I1
sI357
I1
sI997
I1
s(dp2
I0
I7598
sI1
I1697
sI2
I746
sI3
I465
sI4
I301
sI5
I211
sI6
I158
sI7
I136
sI8
I113
sI9
I76
sI10
I70
sI11
I53
sI12
I40
sI13
I36
sI14
I18
sI15
I32
sI16
I20
sI17
I19
sI18
I18
sI19
I15
sI20
I10
sI21
I10
sI22
I8
sI23
I15
sI24
I7
sI25
I2
sI26
I5
sI27
I5
sI28
I2
sI29
I8
sI30
I3
sI31
I8
sI32
I4
sI33
I3
sI34
I5
sI35
I5
sI36
I2
sI37
I3
sI38
I1
sI39
I2
sI40
I4
sI41
I1
sI43
I2
sI45
I1
sI48
I3
sI50
I2
sI51
I2
sI52
I1
sI54
I1
sI57
I2
sI60
I1
sI134
I1
sI66
I1
sI89
I1
sI91
I1
sI98
I1
sI131
I1
sI105
I1
sI109
I1
sI127
I1
s(dp3
S'kmAI'
p4
I1
sS'j'
I6
sS'886'
p5
I10
sS'nonomua'
p6
I8
sS'yeah'
p7
I131
sS'kmV'
p8
I1
sS'yes'
p9
I75
sS'00'
p10
I24
sS'22'
p11
I34
sS'NO'
p12
I2
sS'1'
I223
sS'3'
I77
sS'Hi'
p13
I143
sS'5'
I53
sS'4'
I51
sS'7'
I35
sS'6'
I33
sS'9'
I47
sS'mua'
p14
I158
sS'good'
p15
I54724
sS'orz'
p16
I126
sS'haha'
p17
I827
sS'h'
I14
sS'iPhone'
p18
I76
sS'kiss'
p19
I112
sS'8'
I52
sS'2'
I111
sS'r'
I5
sS'd'
I2
sS'a'
I8
sS'c'
I4
sS'b'
I3
sS'ok'
p20
I4289
sS'g'
I15
sS'nonokiss'
p21
I356
sS'f'
I5
sS'i'
I2
sS'ppbbibi'
p22
I131
sS'k'
I6
sS'kmPS'
p23
I1
sS'm'
I5
sS'l'
I6
sS'o'
I16
sS'n'
I2
sS'q'
I10
sS'p'
I8
sS's'
I7
sS'kmDW'
p24
I3
sS'u'
I5
sS't'
I4
sS'w'
I20
sS'v'
I67
sS'y'
I24
sS'x'
I7
sS'yzoye'
p25
I1
sS'z'
I8
sS'e'
I46
sS'v5'
p26
I125
s(dp27
g4
I1
sS'j'
I5
sg5
I9
sg6
I8
sg7
I40
sg8
I1
sg9
I53
sg10
I18
sg11
I5
sg12
I2
sS'1'
I140
sS'3'
I50
sg13
I102
sS'5'
I33
sS'4'
I26
sS'7'
I13
sS'6'
I15
sS'9'
I13
sg14
I84
sg15
I6913
sg16
I96
sg17
I361
sS'h'
I8
sg18
I65
sg19
I83
sS'8'
I19
sS'2'
I69
sS'r'
I4
sS'd'
I1
sS'a'
I2
sS'c'
I4
sS'b'
I3
sg20
I1829
sS'g'
I10
sg21
I143
sS'f'
I4
sS'i'
I2
sg22
I99
sS'k'
I5
sg23
I1
sS'm'
I5
sS'l'
I4
sS'o'
I5
sS'n'
I2
sS'q'
I9
sS'p'
I4
sS's'
I5
sg24
I3
sS'u'
I3
sS't'
I4
sS'w'
I14
sS'v'
I7
sS'y'
I9
sS'x'
I6
sg25
I1
sS'z'
I7
sS'e'
I4
sg26
I86
st.